; Function Attrs: mustprogress nounwind uwtable
define internal noundef zeroext i1 @"_ZNSt17_Function_handlerIFbRKN4llvm11GlobalValueEEZZN5clang15BackendConsumer13LinkInModulesEPNS0_6ModuleEENK3$_0clERS7_RKNS0_9StringSetINS0_15MallocAllocatorEEEEUlS3_E_E9_M_invokeERKSt9_Any_dataS3_"(ptr nocapture noundef nonnull readonly align 8 dereferenceable(16) %0, ptr noundef nonnull align 8 dereferenceable(48) %1) #0 align 2 {
  %3 = getelementptr inbounds nuw i8, ptr %1, i64 4
  %4 = load i32, ptr %3, align 4
  %5 = and i32 %4, 268435456
  %.not.i.i.i = icmp eq i32 %5, 0
  br i1 %.not.i.i.i, label %"_ZSt10__invoke_rIbRZZN5clang15BackendConsumer13LinkInModulesEPN4llvm6ModuleEENK3$_0clERS3_RKNS2_9StringSetINS2_15MallocAllocatorEEEEUlRKNS2_11GlobalValueEE_JSE_EENSt9enable_ifIX16is_invocable_r_vIT_T0_DpT1_EESI_E4typeEOSJ_DpOSK_.exit", label %6

6:                                                ; preds = %2
  %.val = load ptr, ptr %0, align 8
  %7 = tail call { ptr, i64 } @_ZNK4llvm5Value7getNameEv(ptr noundef nonnull align 8 dereferenceable(24) %1) #23
  %8 = extractvalue { ptr, i64 } %7, 0
  %9 = extractvalue { ptr, i64 } %7, 1
  %10 = tail call noundef i32 @_ZN4llvm13StringMapImpl4hashENS_9StringRefE(ptr %8, i64 %9) #23
  %11 = tail call noundef i32 @_ZNK4llvm13StringMapImpl7FindKeyENS_9StringRefEj(ptr noundef nonnull align 8 dereferenceable(24) %.val, ptr %8, i64 %9, i32 noundef %10) #23
  %12 = icmp eq i32 %11, -1
  %13 = getelementptr inbounds nuw i8, ptr %.val, i64 8
  %14 = load i32, ptr %13, align 8
  %15 = zext i32 %14 to i64
  %16 = sext i32 %11 to i64
  %17 = icmp eq i64 %16, %15
  %.not3.i.i.i = select i1 %12, i1 true, i1 %17
  br label %"_ZSt10__invoke_rIbRZZN5clang15BackendConsumer13LinkInModulesEPN4llvm6ModuleEENK3$_0clERS3_RKNS2_9StringSetINS2_15MallocAllocatorEEEEUlRKNS2_11GlobalValueEE_JSE_EENSt9enable_ifIX16is_invocable_r_vIT_T0_DpT1_EESI_E4typeEOSJ_DpOSK_.exit"

"_ZSt10__invoke_rIbRZZN5clang15BackendConsumer13LinkInModulesEPN4llvm6ModuleEENK3$_0clERS3_RKNS2_9StringSetINS2_15MallocAllocatorEEEEUlRKNS2_11GlobalValueEE_JSE_EENSt9enable_ifIX16is_invocable_r_vIT_T0_DpT1_EESI_E4typeEOSJ_DpOSK_.exit": ; preds = %2, %6
  %18 = phi i1 [ true, %2 ], [ %.not3.i.i.i, %6 ]
  ret i1 %18
}